; Function Attrs: mustprogress uwtable
define void @_ZNK8facebook5velox4core11OrderByNode9serializeEv(ptr noalias sret(%"struct.folly::dynamic") align 8 %agg.result, ptr noundef nonnull align 8 dereferenceable(120) %this) unnamed_addr #0 align 2 personality ptr @__gxx_personality_v0 {
entry:
  %ref.tmp = alloca %"struct.folly::dynamic", align 8
  %ref.tmp6 = alloca %"struct.folly::dynamic", align 8
  %ref.tmp14 = alloca %"struct.folly::dynamic", align 8
  tail call void @_ZNK8facebook5velox4core8PlanNode9serializeEv(ptr sret(%"struct.folly::dynamic") align 8 %agg.result, ptr noundef nonnull align 8 dereferenceable(40) %this)
  %sortingKeys_ = getelementptr inbounds i8, ptr %this, i64 40
  invoke void @_ZN8facebook5velox13ISerializable9serializeISt10shared_ptrIKNS0_4core20FieldAccessTypedExprEEEEN5folly7dynamicERKSt6vectorIT_SaISB_EE(ptr nonnull sret(%"struct.folly::dynamic") align 8 %ref.tmp, ptr noundef nonnull align 8 dereferenceable(24) %sortingKeys_)
          to label %invoke.cont unwind label %lpad

invoke.cont:                                      ; preds = %entry
  %call = invoke noundef nonnull align 8 dereferenceable(40) ptr @_ZNR5folly7dynamicixENS_5RangeIPKcEE(ptr noundef nonnull align 8 dereferenceable(40) %agg.result, ptr nonnull @.str.29, ptr nonnull getelementptr inbounds ([12 x i8], ptr @.str.29, i64 0, i64 11))
          to label %invoke.cont4 unwind label %lpad2

invoke.cont4:                                     ; preds = %invoke.cont
  %call5 = call noundef nonnull align 8 dereferenceable(40) ptr @_ZN5folly7dynamicaSEOS0_(ptr noundef nonnull align 8 dereferenceable(40) %call, ptr noundef nonnull align 8 dereferenceable(40) %ref.tmp) #30
  call void @_ZN5folly7dynamic7destroyEv(ptr noundef nonnull align 8 dereferenceable(40) %ref.tmp) #30
  %sortingOrders_ = getelementptr inbounds i8, ptr %this, i64 64
  %sortingOrders_.val = load ptr, ptr %sortingOrders_, align 8
  %0 = getelementptr inbounds i8, ptr %this, i64 72
  %sortingOrders_.val2 = load ptr, ptr %0, align 8
  invoke fastcc void @_ZN8facebook5velox4core12_GLOBAL__N_122serializeSortingOrdersERKSt6vectorINS1_9SortOrderESaIS4_EE(ptr noalias nonnull align 8 %ref.tmp6, ptr %sortingOrders_.val, ptr %sortingOrders_.val2)
          to label %invoke.cont7 unwind label %lpad

invoke.cont7:                                     ; preds = %invoke.cont4
  %call12 = invoke noundef nonnull align 8 dereferenceable(40) ptr @_ZNR5folly7dynamicixENS_5RangeIPKcEE(ptr noundef nonnull align 8 dereferenceable(40) %agg.result, ptr nonnull @.str.30, ptr nonnull getelementptr inbounds ([14 x i8], ptr @.str.30, i64 0, i64 13))
          to label %invoke.cont15 unwind label %lpad9

invoke.cont15:                                    ; preds = %invoke.cont7
  %call13 = call noundef nonnull align 8 dereferenceable(40) ptr @_ZN5folly7dynamicaSEOS0_(ptr noundef nonnull align 8 dereferenceable(40) %call12, ptr noundef nonnull align 8 dereferenceable(40) %ref.tmp6) #30
  call void @_ZN5folly7dynamic7destroyEv(ptr noundef nonnull align 8 dereferenceable(40) %ref.tmp6) #30
  %isPartial_ = getelementptr inbounds i8, ptr %this, i64 88
  %1 = load i8, ptr %isPartial_, align 8
  %2 = and i8 %1, 1
  %u_.i = getelementptr inbounds i8, ptr %ref.tmp14, i64 8
  store ptr null, ptr %u_.i, align 8
  store i32 2, ptr %ref.tmp14, align 8
  store i8 %2, ptr %u_.i, align 8
  %call20 = invoke noundef nonnull align 8 dereferenceable(40) ptr @_ZNR5folly7dynamicixENS_5RangeIPKcEE(ptr noundef nonnull align 8 dereferenceable(40) %agg.result, ptr nonnull @.str.120, ptr nonnull getelementptr inbounds ([8 x i8], ptr @.str.120, i64 0, i64 7))
          to label %invoke.cont19 unwind label %lpad17

invoke.cont19:                                    ; preds = %invoke.cont15
  %call21 = call noundef nonnull align 8 dereferenceable(40) ptr @_ZN5folly7dynamicaSEOS0_(ptr noundef nonnull align 8 dereferenceable(40) %call20, ptr noundef nonnull align 8 dereferenceable(40) %ref.tmp14) #30
  call void @_ZN5folly7dynamic7destroyEv(ptr noundef nonnull align 8 dereferenceable(40) %ref.tmp14) #30
  ret void

lpad:                                             ; preds = %invoke.cont4, %entry
  %3 = landingpad { ptr, i32 }
          cleanup
  br label %ehcleanup

lpad2:                                            ; preds = %invoke.cont
  %4 = landingpad { ptr, i32 }
          cleanup
  call void @_ZN5folly7dynamic7destroyEv(ptr noundef nonnull align 8 dereferenceable(40) %ref.tmp) #30
  br label %ehcleanup

lpad9:                                            ; preds = %invoke.cont7
  %5 = landingpad { ptr, i32 }
          cleanup
  call void @_ZN5folly7dynamic7destroyEv(ptr noundef nonnull align 8 dereferenceable(40) %ref.tmp6) #30
  br label %ehcleanup

lpad17:                                           ; preds = %invoke.cont15
  %6 = landingpad { ptr, i32 }
          cleanup
  call void @_ZN5folly7dynamic7destroyEv(ptr noundef nonnull align 8 dereferenceable(40) %ref.tmp14) #30
  br label %ehcleanup

ehcleanup:                                        ; preds = %lpad17, %lpad9, %lpad2, %lpad
  %.pn = phi { ptr, i32 } [ %6, %lpad17 ], [ %3, %lpad ], [ %5, %lpad9 ], [ %4, %lpad2 ]
  call void @_ZN5folly7dynamic7destroyEv(ptr noundef nonnull align 8 dereferenceable(40) %agg.result) #30
  resume { ptr, i32 } %.pn
}